; Function Attrs: mustprogress uwtable
define internal void @_ZN7doctest12_GLOBAL__N_115ConsoleReporter19file_line_to_streamEPKciS3_(ptr noundef nonnull readonly align 8 captures(none) dereferenceable(112) %0, ptr noundef %1, i32 noundef %2, ptr noundef %3) unnamed_addr #8 align 2 {
  %5 = getelementptr inbounds nuw i8, ptr %0, i64 8
  %6 = load ptr, ptr %5, align 8, !tbaa !692
  %7 = load i8, ptr @_ZN7doctest6detail11g_no_colorsE, align 1, !tbaa !10, !range !22, !noundef !23
  %8 = trunc nuw i8 %7 to i1
  br i1 %8, label %_ZN7doctest5ColorlsERSoNS0_4EnumE.exit, label %9

9:                                                ; preds = %4
  %10 = tail call i32 @isatty(i32 noundef 1) #49
  %11 = icmp eq i32 %10, 0
  br i1 %11, label %12, label %17

12:                                               ; preds = %9
  %13 = load ptr, ptr @_ZN7doctest6detail4g_csE, align 8, !tbaa !73
  %14 = getelementptr inbounds nuw i8, ptr %13, i64 120
  %15 = load i8, ptr %14, align 8, !tbaa !75, !range !22, !noundef !23
  %16 = icmp eq i8 %15, 0
  br i1 %16, label %_ZN7doctest5ColorlsERSoNS0_4EnumE.exit, label %17

17:                                               ; preds = %12, %9
  %18 = tail call noundef nonnull align 8 dereferenceable(8) ptr @_ZSt16__ostream_insertIcSt11char_traitsIcEERSt13basic_ostreamIT_T0_ES6_PKS3_l(ptr noundef nonnull align 8 dereferenceable(8) %6, ptr noundef nonnull @.str.222, i64 noundef 1)
  %19 = tail call noundef nonnull align 8 dereferenceable(8) ptr @_ZSt16__ostream_insertIcSt11char_traitsIcEERSt13basic_ostreamIT_T0_ES6_PKS3_l(ptr noundef nonnull align 8 dereferenceable(8) %6, ptr noundef nonnull @.str.217, i64 noundef 6)
  br label %_ZN7doctest5ColorlsERSoNS0_4EnumE.exit

_ZN7doctest5ColorlsERSoNS0_4EnumE.exit:           ; preds = %4, %12, %17
  %20 = load ptr, ptr @_ZN7doctest6detail4g_csE, align 8, !tbaa !73
  %21 = getelementptr inbounds nuw i8, ptr %20, i64 124
  %22 = load i8, ptr %21, align 4, !tbaa !80, !range !22, !noundef !23
  %23 = trunc nuw i8 %22 to i1
  br i1 %23, label %24, label %_ZN7doctest20skipPathFromFilenameEPKc.exit

24:                                               ; preds = %_ZN7doctest5ColorlsERSoNS0_4EnumE.exit
  %25 = tail call noundef ptr @strrchr(ptr noundef nonnull readonly dereferenceable(1) %1, i32 noundef 92) #52
  %26 = tail call noundef ptr @strrchr(ptr noundef nonnull readonly dereferenceable(1) %1, i32 noundef 47) #52
  %27 = icmp eq ptr %25, null
  %28 = icmp eq ptr %26, null
  %or.cond.not.i = and i1 %27, %28
  %29 = icmp ugt ptr %25, %26
  %spec.select.i = select i1 %29, ptr %25, ptr %26
  %30 = getelementptr inbounds nuw i8, ptr %spec.select.i, i64 1
  %spec.select = select i1 %or.cond.not.i, ptr %1, ptr %30
  br label %_ZN7doctest20skipPathFromFilenameEPKc.exit.thread10

_ZN7doctest20skipPathFromFilenameEPKc.exit:       ; preds = %_ZN7doctest5ColorlsERSoNS0_4EnumE.exit
  %.not.i = icmp eq ptr %1, null
  br i1 %.not.i, label %31, label %_ZN7doctest20skipPathFromFilenameEPKc.exit.thread10

31:                                               ; preds = %_ZN7doctest20skipPathFromFilenameEPKc.exit
  %32 = load ptr, ptr %6, align 8, !tbaa !31
  %33 = getelementptr i8, ptr %32, i64 -24
  %34 = load i64, ptr %33, align 8
  %35 = getelementptr inbounds i8, ptr %6, i64 %34
  %36 = getelementptr inbounds nuw i8, ptr %35, i64 32
  %37 = load i32, ptr %36, align 8, !tbaa !64
  %38 = or i32 %37, 1
  tail call void @_ZNSt9basic_iosIcSt11char_traitsIcEE5clearESt12_Ios_Iostate(ptr noundef nonnull align 8 dereferenceable(264) %35, i32 noundef %38)
  br label %_ZStlsISt11char_traitsIcEERSt13basic_ostreamIcT_ES5_PKc.exit

_ZN7doctest20skipPathFromFilenameEPKc.exit.thread10: ; preds = %24, %_ZN7doctest20skipPathFromFilenameEPKc.exit
  %.1.i9 = phi ptr [ %1, %_ZN7doctest20skipPathFromFilenameEPKc.exit ], [ %spec.select, %24 ]
  %39 = tail call noundef i64 @strlen(ptr noundef nonnull dereferenceable(1) %.1.i9) #49
  %40 = tail call noundef nonnull align 8 dereferenceable(8) ptr @_ZSt16__ostream_insertIcSt11char_traitsIcEERSt13basic_ostreamIT_T0_ES6_PKS3_l(ptr noundef nonnull align 8 dereferenceable(8) %6, ptr noundef nonnull %.1.i9, i64 noundef %39)
  br label %_ZStlsISt11char_traitsIcEERSt13basic_ostreamIcT_ES5_PKc.exit

_ZStlsISt11char_traitsIcEERSt13basic_ostreamIcT_ES5_PKc.exit: ; preds = %31, %_ZN7doctest20skipPathFromFilenameEPKc.exit.thread10
  %41 = getelementptr inbounds nuw i8, ptr %0, i64 96
  %42 = load ptr, ptr %41, align 8, !tbaa !690
  %43 = getelementptr inbounds nuw i8, ptr %42, i64 123
  %44 = load i8, ptr %43, align 1, !tbaa !339, !range !22, !noundef !23
  %45 = trunc nuw i8 %44 to i1
  %.str.318..str.319 = select i1 %45, ptr @.str.318, ptr @.str.319
  %46 = tail call noundef nonnull align 8 dereferenceable(8) ptr @_ZSt16__ostream_insertIcSt11char_traitsIcEERSt13basic_ostreamIT_T0_ES6_PKS3_l(ptr noundef nonnull align 8 dereferenceable(8) %6, ptr noundef nonnull %.str.318..str.319, i64 noundef 1)
  %47 = load ptr, ptr %41, align 8, !tbaa !690
  %48 = getelementptr inbounds nuw i8, ptr %47, i64 125
  %49 = load i8, ptr %48, align 1, !tbaa !340, !range !22, !noundef !23
  %50 = trunc nuw i8 %49 to i1
  %51 = select i1 %50, i32 0, i32 %2
  %52 = tail call noundef nonnull align 8 dereferenceable(8) ptr @_ZNSolsEi(ptr noundef nonnull align 8 dereferenceable(8) %6, i32 noundef %51)
  %53 = load ptr, ptr %41, align 8, !tbaa !690
  %54 = getelementptr inbounds nuw i8, ptr %53, i64 123
  %55 = load i8, ptr %54, align 1, !tbaa !339, !range !22, !noundef !23
  %56 = trunc nuw i8 %55 to i1
  %57 = select i1 %56, ptr @.str.318, ptr @.str.320
  %58 = select i1 %56, i64 1, i64 2
  %59 = tail call noundef nonnull align 8 dereferenceable(8) ptr @_ZSt16__ostream_insertIcSt11char_traitsIcEERSt13basic_ostreamIT_T0_ES6_PKS3_l(ptr noundef nonnull align 8 dereferenceable(8) %52, ptr noundef nonnull %57, i64 noundef %58)
  %.not.i5 = icmp eq ptr %3, null
  br i1 %.not.i5, label %60, label %68

60:                                               ; preds = %_ZStlsISt11char_traitsIcEERSt13basic_ostreamIcT_ES5_PKc.exit
  %61 = load ptr, ptr %52, align 8, !tbaa !31
  %62 = getelementptr i8, ptr %61, i64 -24
  %63 = load i64, ptr %62, align 8
  %64 = getelementptr inbounds i8, ptr %52, i64 %63
  %65 = getelementptr inbounds nuw i8, ptr %64, i64 32
  %66 = load i32, ptr %65, align 8, !tbaa !64
  %67 = or i32 %66, 1
  tail call void @_ZNSt9basic_iosIcSt11char_traitsIcEE5clearESt12_Ios_Iostate(ptr noundef nonnull align 8 dereferenceable(264) %64, i32 noundef %67)
  br label %_ZStlsISt11char_traitsIcEERSt13basic_ostreamIcT_ES5_PKc.exit6

68:                                               ; preds = %_ZStlsISt11char_traitsIcEERSt13basic_ostreamIcT_ES5_PKc.exit
  %69 = tail call noundef i64 @strlen(ptr noundef nonnull dereferenceable(1) %3) #49
  %70 = tail call noundef nonnull align 8 dereferenceable(8) ptr @_ZSt16__ostream_insertIcSt11char_traitsIcEERSt13basic_ostreamIT_T0_ES6_PKS3_l(ptr noundef nonnull align 8 dereferenceable(8) %52, ptr noundef nonnull %3, i64 noundef %69)
  br label %_ZStlsISt11char_traitsIcEERSt13basic_ostreamIcT_ES5_PKc.exit6

_ZStlsISt11char_traitsIcEERSt13basic_ostreamIcT_ES5_PKc.exit6: ; preds = %60, %68
  ret void
}